target datalayout = "e-m:e-p270:32:32-p271:32:32-p272:64:64-i64:64-i128:128-f80:128-n8:16:32:64-S128"
target triple = "x86_64-pc-linux-gnu"

%class.V3ConfigResolver = type { %class.V3ConfigWildcardResolver, %class.V3ConfigWildcardResolver.0, %class.V3ConfigScopeTraceResolver, %"class.std::unordered_map", ptr }
%class.V3ConfigWildcardResolver = type { %class.V3MutexImp, %"class.std::map", %"class.std::map" }
%class.V3MutexImp = type { %"class.std::mutex" }
%"class.std::mutex" = type { %"class.std::__mutex_base" }
%"class.std::__mutex_base" = type { %union.pthread_mutex_t }
%union.pthread_mutex_t = type { %struct.__pthread_mutex_s }
%struct.__pthread_mutex_s = type { i32, i32, i32, i32, i32, i16, i16, %struct.__pthread_internal_list }
%struct.__pthread_internal_list = type { ptr, ptr }
%"class.std::map" = type { %"class.std::_Rb_tree" }
%"class.std::_Rb_tree" = type { %"struct.std::_Rb_tree<const std::__cxx11::basic_string<char>, std::pair<const std::__cxx11::basic_string<char>, V3ConfigModule>, std::_Select1st<std::pair<const std::__cxx11::basic_string<char>, V3ConfigModule>>, std::less<const std::__cxx11::basic_string<char>>>::_Rb_tree_impl" }
%"struct.std::_Rb_tree<const std::__cxx11::basic_string<char>, std::pair<const std::__cxx11::basic_string<char>, V3ConfigModule>, std::_Select1st<std::pair<const std::__cxx11::basic_string<char>, V3ConfigModule>>, std::less<const std::__cxx11::basic_string<char>>>::_Rb_tree_impl" = type { %"struct.std::_Rb_tree_key_compare", %"struct.std::_Rb_tree_header" }
%"struct.std::_Rb_tree_key_compare" = type { %"struct.std::less" }
%"struct.std::less" = type { i8 }
%"struct.std::_Rb_tree_header" = type { %"struct.std::_Rb_tree_node_base", i64 }
%"struct.std::_Rb_tree_node_base" = type { i32, ptr, ptr, ptr }
%class.V3ConfigWildcardResolver.0 = type { %class.V3MutexImp, %"class.std::map.1", %"class.std::map.1" }
%"class.std::map.1" = type { %"class.std::_Rb_tree.2" }
%"class.std::_Rb_tree.2" = type { %"struct.std::_Rb_tree<const std::__cxx11::basic_string<char>, std::pair<const std::__cxx11::basic_string<char>, V3ConfigFile>, std::_Select1st<std::pair<const std::__cxx11::basic_string<char>, V3ConfigFile>>, std::less<const std::__cxx11::basic_string<char>>>::_Rb_tree_impl" }
%"struct.std::_Rb_tree<const std::__cxx11::basic_string<char>, std::pair<const std::__cxx11::basic_string<char>, V3ConfigFile>, std::_Select1st<std::pair<const std::__cxx11::basic_string<char>, V3ConfigFile>>, std::less<const std::__cxx11::basic_string<char>>>::_Rb_tree_impl" = type { %"struct.std::_Rb_tree_key_compare", %"struct.std::_Rb_tree_header" }
%class.V3ConfigScopeTraceResolver = type { %"class.std::vector", %"class.std::map.9" }
%"class.std::vector" = type { %"struct.std::_Vector_base" }
%"struct.std::_Vector_base" = type { %"struct.std::_Vector_base<V3ConfigScopeTraceEntry, std::allocator<V3ConfigScopeTraceEntry>>::_Vector_impl" }
%"struct.std::_Vector_base<V3ConfigScopeTraceEntry, std::allocator<V3ConfigScopeTraceEntry>>::_Vector_impl" = type { %"struct.std::_Vector_base<V3ConfigScopeTraceEntry, std::allocator<V3ConfigScopeTraceEntry>>::_Vector_impl_data" }
%"struct.std::_Vector_base<V3ConfigScopeTraceEntry, std::allocator<V3ConfigScopeTraceEntry>>::_Vector_impl_data" = type { ptr, ptr, ptr }
%"class.std::map.9" = type { %"class.std::_Rb_tree.10" }
%"class.std::_Rb_tree.10" = type { %"struct.std::_Rb_tree<V3ConfigScopeTraceEntryMatch, std::pair<const V3ConfigScopeTraceEntryMatch, bool>, std::_Select1st<std::pair<const V3ConfigScopeTraceEntryMatch, bool>>, std::less<V3ConfigScopeTraceEntryMatch>>::_Rb_tree_impl" }
%"struct.std::_Rb_tree<V3ConfigScopeTraceEntryMatch, std::pair<const V3ConfigScopeTraceEntryMatch, bool>, std::_Select1st<std::pair<const V3ConfigScopeTraceEntryMatch, bool>>, std::less<V3ConfigScopeTraceEntryMatch>>::_Rb_tree_impl" = type { %"struct.std::_Rb_tree_key_compare.14", %"struct.std::_Rb_tree_header" }
%"struct.std::_Rb_tree_key_compare.14" = type { %"struct.std::less.15" }
%"struct.std::less.15" = type { i8 }
%"class.std::unordered_map" = type { %"class.std::_Hashtable" }
%"class.std::_Hashtable" = type { ptr, i64, %"struct.std::__detail::_Hash_node_base", i64, %"struct.std::__detail::_Prime_rehash_policy", ptr }
%"struct.std::__detail::_Hash_node_base" = type { ptr }
%"struct.std::__detail::_Prime_rehash_policy" = type { float, i64 }
%class.VPragmaType = type { i8 }
%class.V3ConfigFile = type { %"class.std::map.26", %"class.std::multiset", %"class.std::vector.41", %struct.anon }
%"class.std::map.26" = type { %"class.std::_Rb_tree.27" }
%"class.std::_Rb_tree.27" = type { %"struct.std::_Rb_tree<int, std::pair<const int, std::bitset<12>>, std::_Select1st<std::pair<const int, std::bitset<12>>>, std::less<int>>::_Rb_tree_impl" }
%"struct.std::_Rb_tree<int, std::pair<const int, std::bitset<12>>, std::_Select1st<std::pair<const int, std::bitset<12>>>, std::less<int>>::_Rb_tree_impl" = type { %"struct.std::_Rb_tree_key_compare.31", %"struct.std::_Rb_tree_header" }
%"struct.std::_Rb_tree_key_compare.31" = type { %"struct.std::less.32" }
%"struct.std::less.32" = type { i8 }
%"class.std::multiset" = type { %"class.std::_Rb_tree.34" }
%"class.std::_Rb_tree.34" = type { %"struct.std::_Rb_tree<V3ConfigIgnoresLine, V3ConfigIgnoresLine, std::_Identity<V3ConfigIgnoresLine>, std::less<V3ConfigIgnoresLine>>::_Rb_tree_impl" }
%"struct.std::_Rb_tree<V3ConfigIgnoresLine, V3ConfigIgnoresLine, std::_Identity<V3ConfigIgnoresLine>, std::less<V3ConfigIgnoresLine>>::_Rb_tree_impl" = type { %"struct.std::_Rb_tree_key_compare.38", %"struct.std::_Rb_tree_header" }
%"struct.std::_Rb_tree_key_compare.38" = type { %"struct.std::less.39" }
%"struct.std::less.39" = type { i8 }
%"class.std::vector.41" = type { %"struct.std::_Vector_base.42" }
%"struct.std::_Vector_base.42" = type { %"struct.std::_Vector_base<std::pair<V3ErrorCode, std::__cxx11::basic_string<char>>, std::allocator<std::pair<V3ErrorCode, std::__cxx11::basic_string<char>>>>::_Vector_impl" }
%"struct.std::_Vector_base<std::pair<V3ErrorCode, std::__cxx11::basic_string<char>>, std::allocator<std::pair<V3ErrorCode, std::__cxx11::basic_string<char>>>>::_Vector_impl" = type { %"struct.std::_Vector_base<std::pair<V3ErrorCode, std::__cxx11::basic_string<char>>, std::allocator<std::pair<V3ErrorCode, std::__cxx11::basic_string<char>>>>::_Vector_impl_data" }
%"struct.std::_Vector_base<std::pair<V3ErrorCode, std::__cxx11::basic_string<char>>, std::allocator<std::pair<V3ErrorCode, std::__cxx11::basic_string<char>>>>::_Vector_impl_data" = type { ptr, ptr, ptr }
%struct.anon = type { i32, %"struct.std::_Rb_tree_const_iterator" }
%"struct.std::_Rb_tree_const_iterator" = type { ptr }
%"struct.std::_Base_bitset" = type { i64 }

@__dso_handle = external hidden global i8
@_ZZN16V3ConfigResolver1sEvE11s_singleton = linkonce_odr dso_local global %class.V3ConfigResolver zeroinitializer, comdat, align 8
@_ZGVZN16V3ConfigResolver1sEvE11s_singleton = linkonce_odr dso_local global i64 0, comdat, align 8
@.str.131 = private unnamed_addr constant [12 x i8] c"bitset::set\00", align 1
@.str.132 = private unnamed_addr constant [52 x i8] c"%s: __position (which is %zu) >= _Nb (which is %zu)\00", align 1

; Function Attrs: mustprogress nounwind uwtable
define linkonce_odr dso_local noundef i64 @_ZNSt12_Base_bitsetILm1EE11_S_whichbitEm(i64 noundef %0) #5 comdat align 2 {
  %2 = alloca i64, align 8
  store i64 %0, ptr %2, align 8
  %3 = load i64, ptr %2, align 8
  %4 = urem i64 %3, 64
  ret i64 %4
}

; Function Attrs: mustprogress nounwind uwtable
define linkonce_odr dso_local noundef nonnull align 8 dereferenceable(8) ptr @_ZNSt12_Base_bitsetILm1EE10_M_getwordEm(ptr noundef nonnull align 8 dereferenceable(8) %0, i64 noundef %1) #5 comdat align 2 {
  %3 = alloca ptr, align 8
  %4 = alloca i64, align 8
  store ptr %0, ptr %3, align 8
  store i64 %1, ptr %4, align 8
  %5 = load ptr, ptr %3, align 8
  %6 = getelementptr inbounds %"struct.std::_Base_bitset", ptr %5, i32 0, i32 0
  ret ptr %6
}

; Function Attrs: mustprogress nounwind uwtable
define linkonce_odr dso_local noundef i64 @_ZNSt12_Base_bitsetILm1EE10_S_maskbitEm(i64 noundef %0) #5 comdat align 2 {
  %2 = alloca i64, align 8
  store i64 %0, ptr %2, align 8
  %3 = load i64, ptr %2, align 8
  %4 = call noundef i64 @_ZNSt12_Base_bitsetILm1EE11_S_whichbitEm(i64 noundef %3) #3
  %5 = shl i64 1, %4
  ret i64 %5
}

; Function Attrs: mustprogress nounwind uwtable
define linkonce_odr dso_local noundef nonnull align 8 dereferenceable(8) ptr @_ZNSt6bitsetILm12EE14_Unchecked_setEmi(ptr noundef nonnull align 8 dereferenceable(8) %0, i64 noundef %1, i32 noundef %2) #5 comdat align 2 {
  %4 = alloca ptr, align 8
  %5 = alloca i64, align 8
  %6 = alloca i32, align 4
  store ptr %0, ptr %4, align 8
  store i64 %1, ptr %5, align 8
  store i32 %2, ptr %6, align 4
  %7 = load ptr, ptr %4, align 8
  %8 = load i32, ptr %6, align 4
  %9 = icmp ne i32 %8, 0
  br i1 %9, label %10, label %17

10:                                               ; preds = %3
  %11 = load i64, ptr %5, align 8
  %12 = call noundef i64 @_ZNSt12_Base_bitsetILm1EE10_S_maskbitEm(i64 noundef %11) #3
  %13 = load i64, ptr %5, align 8
  %14 = call noundef nonnull align 8 dereferenceable(8) ptr @_ZNSt12_Base_bitsetILm1EE10_M_getwordEm(ptr noundef nonnull align 8 dereferenceable(8) %7, i64 noundef %13) #3
  %15 = load i64, ptr %14, align 8
  %16 = or i64 %15, %12
  store i64 %16, ptr %14, align 8
  br label %25

17:                                               ; preds = %3
  %18 = load i64, ptr %5, align 8
  %19 = call noundef i64 @_ZNSt12_Base_bitsetILm1EE10_S_maskbitEm(i64 noundef %18) #3
  %20 = xor i64 %19, -1
  %21 = load i64, ptr %5, align 8
  %22 = call noundef nonnull align 8 dereferenceable(8) ptr @_ZNSt12_Base_bitsetILm1EE10_M_getwordEm(ptr noundef nonnull align 8 dereferenceable(8) %7, i64 noundef %21) #3
  %23 = load i64, ptr %22, align 8
  %24 = and i64 %23, %20
  store i64 %24, ptr %22, align 8
  br label %25

25:                                               ; preds = %17, %10
  ret ptr %7
}

; Function Attrs: mustprogress uwtable
define linkonce_odr dso_local void @_ZNKSt6bitsetILm12EE8_M_checkEmPKc(ptr noundef nonnull align 8 dereferenceable(8) %0, i64 noundef %1, ptr noundef %2) #4 comdat align 2 {
  %4 = alloca ptr, align 8
  %5 = alloca i64, align 8
  %6 = alloca ptr, align 8
  store ptr %0, ptr %4, align 8
  store i64 %1, ptr %5, align 8
  store ptr %2, ptr %6, align 8
  %7 = load i64, ptr %5, align 8
  %8 = icmp uge i64 %7, 12
  br i1 %8, label %9, label %12

9:                                                ; preds = %3
  %10 = load ptr, ptr %6, align 8
  %11 = load i64, ptr %5, align 8
  call void (ptr, ...) @_ZSt24__throw_out_of_range_fmtPKcz(ptr noundef @.str.132, ptr noundef %10, i64 noundef %11, i64 noundef 12) #16
  unreachable

12:                                               ; preds = %3
  ret void
}

; Function Attrs: mustprogress uwtable
define linkonce_odr dso_local noundef nonnull align 8 dereferenceable(8) ptr @_ZNSt6bitsetILm12EE3setEmb(ptr noundef nonnull align 8 dereferenceable(8) %0, i64 noundef %1, i1 noundef zeroext %2) #4 comdat align 2 {
  %4 = alloca ptr, align 8
  %5 = alloca i64, align 8
  %6 = alloca i8, align 1
  store ptr %0, ptr %4, align 8
  store i64 %1, ptr %5, align 8
  %7 = zext i1 %2 to i8
  store i8 %7, ptr %6, align 1
  %8 = load ptr, ptr %4, align 8
  %9 = load i64, ptr %5, align 8
  call void @_ZNKSt6bitsetILm12EE8_M_checkEmPKc(ptr noundef nonnull align 8 dereferenceable(8) %8, i64 noundef %9, ptr noundef @.str.131)
  %10 = load i64, ptr %5, align 8
  %11 = load i8, ptr %6, align 1
  %12 = trunc i8 %11 to i1
  %13 = zext i1 %12 to i32
  %14 = call noundef nonnull align 8 dereferenceable(8) ptr @_ZNSt6bitsetILm12EE14_Unchecked_setEmi(ptr noundef nonnull align 8 dereferenceable(8) %8, i64 noundef %10, i32 noundef %13) #3
  ret ptr %14
}

; Function Attrs: mustprogress nounwind uwtable
define linkonce_odr dso_local noundef zeroext i8 @_ZNK11VPragmaTypecvNS_2enEEv(ptr noundef nonnull align 1 dereferenceable(1) %0) #5 comdat align 2 {
  %2 = alloca ptr, align 8
  store ptr %0, ptr %2, align 8
  %3 = load ptr, ptr %2, align 8
  %4 = getelementptr inbounds %class.VPragmaType, ptr %3, i32 0, i32 0
  %5 = load i8, ptr %4, align 1
  ret i8 %5
}

; Function Attrs: mustprogress uwtable
define linkonce_odr dso_local void @_ZN12V3ConfigFile16addLineAttributeEi11VPragmaType(ptr noundef nonnull align 8 dereferenceable(136) %0, i32 noundef %1, i8 %2) #4 comdat align 2 {
  %4 = alloca %class.VPragmaType, align 1
  %5 = alloca ptr, align 8
  %6 = alloca i32, align 4
  %7 = getelementptr inbounds %class.VPragmaType, ptr %4, i32 0, i32 0
  store i8 %2, ptr %7, align 1
  store ptr %0, ptr %5, align 8
  store i32 %1, ptr %6, align 4
  %8 = load ptr, ptr %5, align 8
  %9 = getelementptr inbounds %class.V3ConfigFile, ptr %8, i32 0, i32 0
  %10 = call noundef nonnull align 8 dereferenceable(8) ptr @_ZNSt3mapIiSt6bitsetILm12EESt4lessIiESaISt4pairIKiS1_EEEixERS5_(ptr noundef nonnull align 8 dereferenceable(48) %9, ptr noundef nonnull align 4 dereferenceable(4) %6)
  %11 = call noundef zeroext i8 @_ZNK11VPragmaTypecvNS_2enEEv(ptr noundef nonnull align 1 dereferenceable(1) %4)
  %12 = zext i8 %11 to i64
  %13 = call noundef nonnull align 8 dereferenceable(8) ptr @_ZNSt6bitsetILm12EE3setEmb(ptr noundef nonnull align 8 dereferenceable(8) %10, i64 noundef %12, i1 noundef zeroext true)
  ret void
}

; Function Attrs: mustprogress nounwind uwtable
define linkonce_odr dso_local void @_ZN11VPragmaTypeC2ENS_2enE(ptr noundef nonnull align 1 dereferenceable(1) %0, i8 noundef zeroext %1) unnamed_addr #5 comdat align 2 {
  %3 = alloca ptr, align 8
  %4 = alloca i8, align 1
  store ptr %0, ptr %3, align 8
  store i8 %1, ptr %4, align 1
  %5 = load ptr, ptr %3, align 8
  %6 = getelementptr inbounds %class.VPragmaType, ptr %5, i32 0, i32 0
  %7 = load i8, ptr %4, align 1
  store i8 %7, ptr %6, align 1
  ret void
}

; Function Attrs: mustprogress nounwind uwtable
define linkonce_odr dso_local noundef nonnull align 8 dereferenceable(136) ptr @_ZN16V3ConfigResolver5filesEv(ptr noundef nonnull align 8 dereferenceable(408) %0) #5 comdat align 2 {
  %2 = alloca ptr, align 8
  store ptr %0, ptr %2, align 8
  %3 = load ptr, ptr %2, align 8
  %4 = getelementptr inbounds %class.V3ConfigResolver, ptr %3, i32 0, i32 1
  ret ptr %4
}

; Function Attrs: mustprogress nounwind uwtable
define linkonce_odr dso_local noundef nonnull align 8 dereferenceable(408) ptr @_ZN16V3ConfigResolver1sEv() #5 comdat align 2 {
  %1 = load atomic i8, ptr @_ZGVZN16V3ConfigResolver1sEvE11s_singleton acquire, align 8
  %2 = icmp eq i8 %1, 0
  br i1 %2, label %3, label %8, !prof !5

3:                                                ; preds = %0
  %4 = call i32 @__cxa_guard_acquire(ptr @_ZGVZN16V3ConfigResolver1sEvE11s_singleton) #3
  %5 = icmp ne i32 %4, 0
  br i1 %5, label %6, label %8

6:                                                ; preds = %3
  call void @_ZN16V3ConfigResolverC2Ev(ptr noundef nonnull align 8 dereferenceable(408) @_ZZN16V3ConfigResolver1sEvE11s_singleton) #3
  %7 = call i32 @__cxa_atexit(ptr @_ZN16V3ConfigResolverD2Ev, ptr @_ZZN16V3ConfigResolver1sEvE11s_singleton, ptr @__dso_handle) #3
  call void @__cxa_guard_release(ptr @_ZGVZN16V3ConfigResolver1sEvE11s_singleton) #3
  br label %8

8:                                                ; preds = %6, %3, %0
  ret ptr @_ZZN16V3ConfigResolver1sEvE11s_singleton
}

; Function Attrs: mustprogress uwtable
define dso_local void @_ZN8V3Config15addCaseParallelERKNSt7__cxx1112basic_stringIcSt11char_traitsIcESaIcEEEi(ptr noundef nonnull align 8 dereferenceable(32) %0, i32 noundef %1) #4 align 2 {
  %3 = alloca ptr, align 8
  %4 = alloca i32, align 4
  %5 = alloca ptr, align 8
  %6 = alloca %class.VPragmaType, align 1
  store ptr %0, ptr %3, align 8
  store i32 %1, ptr %4, align 4
  %7 = call noundef nonnull align 8 dereferenceable(408) ptr @_ZN16V3ConfigResolver1sEv()
  %8 = call noundef nonnull align 8 dereferenceable(136) ptr @_ZN16V3ConfigResolver5filesEv(ptr noundef nonnull align 8 dereferenceable(408) %7)
  %9 = load ptr, ptr %3, align 8
  %10 = call noundef nonnull align 8 dereferenceable(136) ptr @_ZN24V3ConfigWildcardResolverI12V3ConfigFileE2atERKNSt7__cxx1112basic_stringIcSt11char_traitsIcESaIcEEE(ptr noundef nonnull align 8 dereferenceable(136) %8, ptr noundef nonnull align 8 dereferenceable(32) %9)
  store ptr %10, ptr %5, align 8
  %11 = load ptr, ptr %5, align 8
  %12 = load i32, ptr %4, align 4
  call void @_ZN11VPragmaTypeC2ENS_2enE(ptr noundef nonnull align 1 dereferenceable(1) %6, i8 noundef zeroext 11)
  %13 = getelementptr inbounds %class.VPragmaType, ptr %6, i32 0, i32 0
  %14 = load i8, ptr %13, align 1
  call void @_ZN12V3ConfigFile16addLineAttributeEi11VPragmaType(ptr noundef nonnull align 8 dereferenceable(136) %11, i32 noundef %12, i8 %14)
  ret void
}